; Function Attrs: mustprogress uwtable
define void @_ZNK3zmq14tcp_listener_t15get_socket_nameB5cxx11EiNS_12socket_end_tE(ptr noalias sret(%"class.std::__cxx11::basic_string") align 8 %agg.result, ptr nocapture nonnull readnone align 8 %this, i32 noundef %fd_, i32 noundef %socket_end_) unnamed_addr #0 align 2 personality ptr @__gxx_personality_v0 {
entry:
  %ss.i = alloca %struct.sockaddr_storage, align 8
  %addr.i = alloca %"class.zmq::tcp_address_t", align 4
  call void @llvm.lifetime.start.p0(i64 128, ptr nonnull %ss.i)
  call void @llvm.lifetime.start.p0(i64 60, ptr nonnull %addr.i)
  %call.i = call noundef i32 @_ZN3zmq18get_socket_addressEiNS_12socket_end_tEP16sockaddr_storage(i32 noundef %fd_, i32 noundef %socket_end_, ptr noundef nonnull %ss.i), !noalias !6
  %cmp.i = icmp eq i32 %call.i, 0
  br i1 %cmp.i, label %if.then.i, label %if.end.i

if.then.i:                                        ; preds = %entry
  call void @_ZNSt7__cxx1112basic_stringIcSt11char_traitsIcESaIcEEC1Ev(ptr noundef nonnull align 8 dereferenceable(32) %agg.result) #11
  br label %_ZN3zmq15get_socket_nameINS_13tcp_address_tEEENSt7__cxx1112basic_stringIcSt11char_traitsIcESaIcEEEiNS_12socket_end_tE.exit

if.end.i:                                         ; preds = %entry
  call void @_ZN3zmq13tcp_address_tC1EPK8sockaddrj(ptr noundef nonnull align 4 dereferenceable(57) %addr.i, ptr noundef nonnull %ss.i, i32 noundef %call.i), !noalias !6
  call void @_ZNSt7__cxx1112basic_stringIcSt11char_traitsIcESaIcEEC1Ev(ptr noundef nonnull align 8 dereferenceable(32) %agg.result) #11
  %call1.i = invoke noundef i32 @_ZNK3zmq13tcp_address_t9to_stringERNSt7__cxx1112basic_stringIcSt11char_traitsIcESaIcEEE(ptr noundef nonnull align 4 dereferenceable(57) %addr.i, ptr noundef nonnull align 8 dereferenceable(32) %agg.result)
          to label %_ZN3zmq15get_socket_nameINS_13tcp_address_tEEENSt7__cxx1112basic_stringIcSt11char_traitsIcESaIcEEEiNS_12socket_end_tE.exit unwind label %lpad.i

lpad.i:                                           ; preds = %if.end.i
  %0 = landingpad { ptr, i32 }
          cleanup
  call void @_ZNSt7__cxx1112basic_stringIcSt11char_traitsIcESaIcEED1Ev(ptr noundef nonnull align 8 dereferenceable(32) %agg.result) #11
  resume { ptr, i32 } %0

_ZN3zmq15get_socket_nameINS_13tcp_address_tEEENSt7__cxx1112basic_stringIcSt11char_traitsIcESaIcEEEiNS_12socket_end_tE.exit: ; preds = %if.then.i, %if.end.i
  call void @llvm.lifetime.end.p0(i64 128, ptr nonnull %ss.i)
  call void @llvm.lifetime.end.p0(i64 60, ptr nonnull %addr.i)
  ret void
}